; ModuleID = '26/1041.c'
source_filename = "26/1041.c"
target datalayout = "e-m:e-p270:32:32-p271:32:32-p272:64:64-i64:64-f80:128-n8:16:32:64-S128"
target triple = "x86_64-pc-linux-gnu"

; Function Attrs: noinline nounwind uwtable
define dso_local i32 @main() #0 {
  %1 = alloca i32, align 4
  %2 = alloca i32, align 4
  %3 = alloca i32, align 4
  %4 = alloca [101 x i8], align 16
  %5 = alloca [101 x i8], align 16
  store i32 0, i32* %1, align 4
  store i32 0, i32* %3, align 4
  %6 = getelementptr inbounds [101 x i8], [101 x i8]* %4, i64 0, i64 0
  %7 = call i32 (i8*, ...) bitcast (i32 (...)* @gets to i32 (i8*, ...)*)(i8* %6)
  store i32 0, i32* %2, align 4
  br label %8

8:                                                ; preds = %40, %0
  %9 = load i32, i32* %2, align 4
  %10 = sext i32 %9 to i64
  %11 = getelementptr inbounds [101 x i8], [101 x i8]* %4, i64 0, i64 %10
  %12 = load i8, i8* %11, align 1
  %13 = icmp ne i8 %12, 0
  br i1 %13, label %14, label %43

14:                                               ; preds = %8
  %15 = load i32, i32* %2, align 4
  %16 = sext i32 %15 to i64
  %17 = getelementptr inbounds [101 x i8], [101 x i8]* %4, i64 0, i64 %16
  %18 = load i8, i8* %17, align 1
  %19 = sext i8 %18 to i32
  %20 = icmp eq i32 %19, 32
  br i1 %20, label %21, label %29

21:                                               ; preds = %14
  %22 = load i32, i32* %2, align 4
  %23 = add nsw i32 %22, 1
  %24 = sext i32 %23 to i64
  %25 = getelementptr inbounds [101 x i8], [101 x i8]* %4, i64 0, i64 %24
  %26 = load i8, i8* %25, align 1
  %27 = sext i8 %26 to i32
  %28 = icmp eq i32 %27, 32
  br i1 %28, label %39, label %29

29:                                               ; preds = %21, %14
  %30 = load i32, i32* %2, align 4
  %31 = sext i32 %30 to i64
  %32 = getelementptr inbounds [101 x i8], [101 x i8]* %4, i64 0, i64 %31
  %33 = load i8, i8* %32, align 1
  %34 = load i32, i32* %3, align 4
  %35 = sext i32 %34 to i64
  %36 = getelementptr inbounds [101 x i8], [101 x i8]* %5, i64 0, i64 %35
  store i8 %33, i8* %36, align 1
  %37 = load i32, i32* %3, align 4
  %38 = add nsw i32 %37, 1
  store i32 %38, i32* %3, align 4
  br label %39

39:                                               ; preds = %29, %21
  br label %40

40:                                               ; preds = %39
  %41 = load i32, i32* %2, align 4
  %42 = add nsw i32 %41, 1
  store i32 %42, i32* %2, align 4
  br label %8

43:                                               ; preds = %8
  %44 = load i32, i32* %3, align 4
  %45 = sext i32 %44 to i64
  %46 = getelementptr inbounds [101 x i8], [101 x i8]* %5, i64 0, i64 %45
  store i8 0, i8* %46, align 1
  %47 = getelementptr inbounds [101 x i8], [101 x i8]* %5, i64 0, i64 0
  %48 = call i32 @puts(i8* %47)
  %49 = load i32, i32* %1, align 4
  ret i32 %49
}

declare dso_local i32 @gets(...) #1

declare dso_local i32 @puts(i8*) #1


!llvm.module.flags = !{!0}
!llvm.ident = !{!1}

!0 = !{i32 1, !"wchar_size", i32 4}
!1 = !{!"clang version 10.0.0-4ubuntu1 "}
